target datalayout = "e-m:e-p270:32:32-p271:32:32-p272:64:64-i64:64-i128:128-f80:128-n8:16:32:64-S128"
target triple = "x86_64-pc-linux-gnu"

%struct.b2World = type { %struct.b2ArenaAllocator, %struct.b2BroadPhase, %struct.b2ConstraintGraph, %struct.b2IdPool, %struct.b2BodyArray, %struct.b2IdPool, %struct.b2SolverSetArray, %struct.b2IdPool, %struct.b2JointArray, %struct.b2IdPool, %struct.b2ContactArray, %struct.b2IdPool, %struct.b2IslandArray, %struct.b2IdPool, %struct.b2IdPool, %struct.b2ShapeArray, %struct.b2ChainShapeArray, %struct.b2SensorArray, %struct.b2TaskContextArray, %struct.b2SensorTaskContextArray, %struct.b2BodyMoveEventArray, %struct.b2SensorBeginTouchEventArray, %struct.b2ContactBeginTouchEventArray, [2 x %struct.b2SensorEndTouchEventArray], [2 x %struct.b2ContactEndTouchEventArray], i32, %struct.b2ContactHitEventArray, %struct.b2BitSet, %struct.b2BitSet, %struct.b2BitSet, i64, i32, %struct.b2Vec2, float, float, float, float, float, float, float, float, ptr, ptr, i16, %struct.b2Profile, ptr, ptr, ptr, ptr, i32, ptr, ptr, ptr, ptr, ptr, float, i32, i32, i16, i8, i8, i8, i8, i8, i8 }
%struct.b2ArenaAllocator = type { ptr, i32, i32, i32, i32, %struct.b2ArenaEntryArray }
%struct.b2ArenaEntryArray = type { ptr, i32, i32 }
%struct.b2BroadPhase = type { [3 x %struct.b2DynamicTree], i32, %struct.b2HashSet, %struct.b2IntArray, ptr, ptr, i32, %struct.b2AtomicInt, %struct.b2HashSet }
%struct.b2DynamicTree = type { ptr, i32, i32, i32, i32, i32, ptr, ptr, ptr, ptr, i32 }
%struct.b2IntArray = type { ptr, i32, i32 }
%struct.b2AtomicInt = type { i32 }
%struct.b2HashSet = type { ptr, i32, i32 }
%struct.b2ConstraintGraph = type { [12 x %struct.b2GraphColor] }
%struct.b2GraphColor = type { %struct.b2BitSet, %struct.b2ContactSimArray, %struct.b2JointSimArray, %union.anon }
%struct.b2ContactSimArray = type { ptr, i32, i32 }
%struct.b2JointSimArray = type { ptr, i32, i32 }
%union.anon = type { ptr }
%struct.b2BodyArray = type { ptr, i32, i32 }
%struct.b2SolverSetArray = type { ptr, i32, i32 }
%struct.b2JointArray = type { ptr, i32, i32 }
%struct.b2ContactArray = type { ptr, i32, i32 }
%struct.b2IslandArray = type { ptr, i32, i32 }
%struct.b2IdPool = type { %struct.b2IntArray, i32 }
%struct.b2ShapeArray = type { ptr, i32, i32 }
%struct.b2ChainShapeArray = type { ptr, i32, i32 }
%struct.b2SensorArray = type { ptr, i32, i32 }
%struct.b2TaskContextArray = type { ptr, i32, i32 }
%struct.b2SensorTaskContextArray = type { ptr, i32, i32 }
%struct.b2BodyMoveEventArray = type { ptr, i32, i32 }
%struct.b2SensorBeginTouchEventArray = type { ptr, i32, i32 }
%struct.b2ContactBeginTouchEventArray = type { ptr, i32, i32 }
%struct.b2SensorEndTouchEventArray = type { ptr, i32, i32 }
%struct.b2ContactEndTouchEventArray = type { ptr, i32, i32 }
%struct.b2ContactHitEventArray = type { ptr, i32, i32 }
%struct.b2BitSet = type { ptr, i32, i32 }
%struct.b2Vec2 = type { float, float }
%struct.b2Profile = type { float, float, float, float, float, float, float, float, float, float, float, float, float, float, float, float, float, float, float, float, float, float }
%struct.b2Transform = type { %struct.b2Vec2, %struct.b2Rot }
%struct.b2Rot = type { float, float }
%struct.b2WorldId = type { i16, i16 }
%struct.b2TreeStats = type { i32, i32 }
%struct.b2Circle = type { %struct.b2Vec2, float }
%struct.b2QueryFilter = type { i64, i64 }
%struct.WorldRayCastContext = type { ptr, ptr, %struct.b2QueryFilter, float, ptr }
%struct.b2ShapeCastInput = type { [8 x %struct.b2Vec2], i32, float, %struct.b2Vec2, float }

@b2_worlds = hidden global [128 x %struct.b2World] zeroinitializer, align 16

; Function Attrs: inlinehint nounwind uwtable
define internal <2 x float> @b2TransformPoint(<2 x float> %0, <2 x float> %1, <2 x float> %2) #8 {
  %4 = alloca %struct.b2Vec2, align 4
  %5 = alloca %struct.b2Transform, align 4
  %6 = alloca %struct.b2Vec2, align 4
  %7 = alloca float, align 4
  %8 = alloca float, align 4
  %9 = getelementptr inbounds nuw { <2 x float>, <2 x float> }, ptr %5, i32 0, i32 0
  store <2 x float> %0, ptr %9, align 4
  %10 = getelementptr inbounds nuw { <2 x float>, <2 x float> }, ptr %5, i32 0, i32 1
  store <2 x float> %1, ptr %10, align 4
  store <2 x float> %2, ptr %6, align 4
  call void @llvm.lifetime.start.p0(i64 4, ptr %7) #10
  %11 = getelementptr inbounds nuw %struct.b2Transform, ptr %5, i32 0, i32 1
  %12 = getelementptr inbounds nuw %struct.b2Rot, ptr %11, i32 0, i32 0
  %13 = load float, ptr %12, align 4, !tbaa !414
  %14 = getelementptr inbounds nuw %struct.b2Vec2, ptr %6, i32 0, i32 0
  %15 = load float, ptr %14, align 4, !tbaa !341
  %16 = fmul float %13, %15
  %17 = getelementptr inbounds nuw %struct.b2Transform, ptr %5, i32 0, i32 1
  %18 = getelementptr inbounds nuw %struct.b2Rot, ptr %17, i32 0, i32 1
  %19 = load float, ptr %18, align 4, !tbaa !415
  %20 = getelementptr inbounds nuw %struct.b2Vec2, ptr %6, i32 0, i32 1
  %21 = load float, ptr %20, align 4, !tbaa !343
  %22 = fmul float %19, %21
  %23 = fsub float %16, %22
  %24 = getelementptr inbounds nuw %struct.b2Transform, ptr %5, i32 0, i32 0
  %25 = getelementptr inbounds nuw %struct.b2Vec2, ptr %24, i32 0, i32 0
  %26 = load float, ptr %25, align 4, !tbaa !416
  %27 = fadd float %23, %26
  store float %27, ptr %7, align 4, !tbaa !124
  call void @llvm.lifetime.start.p0(i64 4, ptr %8) #10
  %28 = getelementptr inbounds nuw %struct.b2Transform, ptr %5, i32 0, i32 1
  %29 = getelementptr inbounds nuw %struct.b2Rot, ptr %28, i32 0, i32 1
  %30 = load float, ptr %29, align 4, !tbaa !415
  %31 = getelementptr inbounds nuw %struct.b2Vec2, ptr %6, i32 0, i32 0
  %32 = load float, ptr %31, align 4, !tbaa !341
  %33 = fmul float %30, %32
  %34 = getelementptr inbounds nuw %struct.b2Transform, ptr %5, i32 0, i32 1
  %35 = getelementptr inbounds nuw %struct.b2Rot, ptr %34, i32 0, i32 0
  %36 = load float, ptr %35, align 4, !tbaa !414
  %37 = getelementptr inbounds nuw %struct.b2Vec2, ptr %6, i32 0, i32 1
  %38 = load float, ptr %37, align 4, !tbaa !343
  %39 = fmul float %36, %38
  %40 = fadd float %33, %39
  %41 = getelementptr inbounds nuw %struct.b2Transform, ptr %5, i32 0, i32 0
  %42 = getelementptr inbounds nuw %struct.b2Vec2, ptr %41, i32 0, i32 1
  %43 = load float, ptr %42, align 4, !tbaa !417
  %44 = fadd float %40, %43
  store float %44, ptr %8, align 4, !tbaa !124
  %45 = getelementptr inbounds nuw %struct.b2Vec2, ptr %4, i32 0, i32 0
  %46 = load float, ptr %7, align 4, !tbaa !124
  store float %46, ptr %45, align 4, !tbaa !341
  %47 = getelementptr inbounds nuw %struct.b2Vec2, ptr %4, i32 0, i32 1
  %48 = load float, ptr %8, align 4, !tbaa !124
  store float %48, ptr %47, align 4, !tbaa !343
  call void @llvm.lifetime.end.p0(i64 4, ptr %8) #10
  call void @llvm.lifetime.end.p0(i64 4, ptr %7) #10
  %49 = load <2 x float>, ptr %4, align 4
  ret <2 x float> %49
}

; Function Attrs: nounwind uwtable
define hidden ptr @b2GetWorldFromId(i32 %0) #0 {
  %2 = alloca %struct.b2WorldId, align 2
  %3 = alloca ptr, align 8
  store i32 %0, ptr %2, align 2
  call void @llvm.lifetime.start.p0(i64 8, ptr %3) #10
  %4 = getelementptr inbounds nuw %struct.b2WorldId, ptr %2, i32 0, i32 0
  %5 = load i16, ptr %4, align 2, !tbaa !44
  %6 = zext i16 %5 to i32
  %7 = sub nsw i32 %6, 1
  %8 = sext i32 %7 to i64
  %9 = getelementptr inbounds %struct.b2World, ptr @b2_worlds, i64 %8
  store ptr %9, ptr %3, align 8, !tbaa !47
  %10 = load ptr, ptr %3, align 8, !tbaa !47
  call void @llvm.lifetime.end.p0(i64 8, ptr %3) #10
  ret ptr %10
}

; Function Attrs: nounwind uwtable
define i64 @b2World_CastCircle(i32 %0, ptr noundef %1, <2 x float> %2, <2 x float> %3, <2 x float> %4, i64 %5, i64 %6, ptr noundef %7, ptr noundef %8) #6 {
  %10 = alloca %struct.b2TreeStats, align 4
  %11 = alloca %struct.b2WorldId, align 2
  %12 = alloca %struct.b2Transform, align 4
  %13 = alloca %struct.b2Vec2, align 4
  %14 = alloca %struct.b2QueryFilter, align 8
  %15 = alloca ptr, align 8
  %16 = alloca ptr, align 8
  %17 = alloca ptr, align 8
  %18 = alloca ptr, align 8
  %19 = alloca i32, align 4
  %20 = alloca %struct.b2ShapeCastInput, align 4
  %21 = alloca %struct.b2Vec2, align 4
  %22 = alloca %struct.WorldRayCastContext, align 8
  %23 = alloca i32, align 4
  %24 = alloca %struct.b2TreeStats, align 4
  store i32 %0, ptr %11, align 2
  %25 = getelementptr inbounds nuw { <2 x float>, <2 x float> }, ptr %12, i32 0, i32 0
  store <2 x float> %2, ptr %25, align 4
  %26 = getelementptr inbounds nuw { <2 x float>, <2 x float> }, ptr %12, i32 0, i32 1
  store <2 x float> %3, ptr %26, align 4
  store <2 x float> %4, ptr %13, align 4
  %27 = getelementptr inbounds nuw { i64, i64 }, ptr %14, i32 0, i32 0
  store i64 %5, ptr %27, align 8
  %28 = getelementptr inbounds nuw { i64, i64 }, ptr %14, i32 0, i32 1
  store i64 %6, ptr %28, align 8
  store ptr %1, ptr %15, align 8, !tbaa !401
  store ptr %7, ptr %16, align 8, !tbaa !12
  store ptr %8, ptr %17, align 8, !tbaa !12
  call void @llvm.memset.p0.i64(ptr align 4 %10, i8 0, i64 8, i1 false)
  call void @llvm.lifetime.start.p0(i64 8, ptr %18) #10
  %29 = load i32, ptr %11, align 2
  %30 = call ptr @b2GetWorldFromId(i32 %29)
  store ptr %30, ptr %18, align 8, !tbaa !47
  %31 = load ptr, ptr %18, align 8, !tbaa !47
  %32 = getelementptr inbounds nuw %struct.b2World, ptr %31, i32 0, i32 60
  %33 = load i8, ptr %32, align 1, !tbaa !49, !range !90, !noundef !91
  %34 = trunc i8 %33 to i1
  br i1 %34, label %35, label %36

35:                                               ; preds = %9
  store i32 1, ptr %19, align 4
  br label %106

36:                                               ; preds = %9
  call void @llvm.lifetime.start.p0(i64 84, ptr %20) #10
  %37 = getelementptr inbounds nuw %struct.b2ShapeCastInput, ptr %20, i32 0, i32 0
  %38 = getelementptr inbounds [8 x %struct.b2Vec2], ptr %37, i64 0, i64 0
  call void @llvm.lifetime.start.p0(i64 8, ptr %21) #10
  %39 = load ptr, ptr %15, align 8, !tbaa !401
  %40 = getelementptr inbounds nuw %struct.b2Circle, ptr %39, i32 0, i32 0
  %41 = getelementptr inbounds nuw { <2 x float>, <2 x float> }, ptr %12, i32 0, i32 0
  %42 = load <2 x float>, ptr %41, align 4
  %43 = getelementptr inbounds nuw { <2 x float>, <2 x float> }, ptr %12, i32 0, i32 1
  %44 = load <2 x float>, ptr %43, align 4
  %45 = load <2 x float>, ptr %40, align 4
  %46 = call <2 x float> @b2TransformPoint(<2 x float> %42, <2 x float> %44, <2 x float> %45)
  store <2 x float> %46, ptr %21, align 4
  call void @llvm.memcpy.p0.p0.i64(ptr align 4 %38, ptr align 4 %21, i64 8, i1 false), !tbaa.struct !162
  call void @llvm.lifetime.end.p0(i64 8, ptr %21) #10
  %47 = getelementptr inbounds nuw %struct.b2ShapeCastInput, ptr %20, i32 0, i32 1
  store i32 1, ptr %47, align 4, !tbaa !558
  %48 = load ptr, ptr %15, align 8, !tbaa !401
  %49 = getelementptr inbounds nuw %struct.b2Circle, ptr %48, i32 0, i32 1
  %50 = load float, ptr %49, align 4, !tbaa !404
  %51 = getelementptr inbounds nuw %struct.b2ShapeCastInput, ptr %20, i32 0, i32 2
  store float %50, ptr %51, align 4, !tbaa !560
  %52 = getelementptr inbounds nuw %struct.b2ShapeCastInput, ptr %20, i32 0, i32 3
  call void @llvm.memcpy.p0.p0.i64(ptr align 4 %52, ptr align 4 %13, i64 8, i1 false), !tbaa.struct !162
  %53 = getelementptr inbounds nuw %struct.b2ShapeCastInput, ptr %20, i32 0, i32 4
  store float 1.000000e+00, ptr %53, align 4, !tbaa !561
  call void @llvm.lifetime.start.p0(i64 48, ptr %22) #10
  %54 = getelementptr inbounds nuw %struct.WorldRayCastContext, ptr %22, i32 0, i32 0
  %55 = load ptr, ptr %18, align 8, !tbaa !47
  store ptr %55, ptr %54, align 8, !tbaa !537
  %56 = getelementptr inbounds nuw %struct.WorldRayCastContext, ptr %22, i32 0, i32 1
  %57 = load ptr, ptr %16, align 8, !tbaa !12
  store ptr %57, ptr %56, align 8, !tbaa !539
  %58 = getelementptr inbounds nuw %struct.WorldRayCastContext, ptr %22, i32 0, i32 2
  call void @llvm.memcpy.p0.p0.i64(ptr align 8 %58, ptr align 8 %14, i64 16, i1 false), !tbaa.struct !506
  %59 = getelementptr inbounds nuw %struct.WorldRayCastContext, ptr %22, i32 0, i32 3
  store float 1.000000e+00, ptr %59, align 8, !tbaa !540
  %60 = getelementptr i8, ptr %22, i64 36
  call void @llvm.memset.p0.i64(ptr align 4 %60, i8 0, i64 4, i1 false)
  %61 = getelementptr inbounds nuw %struct.WorldRayCastContext, ptr %22, i32 0, i32 4
  %62 = load ptr, ptr %17, align 8, !tbaa !12
  store ptr %62, ptr %61, align 8, !tbaa !541
  call void @llvm.lifetime.start.p0(i64 4, ptr %23) #10
  store i32 0, ptr %23, align 4, !tbaa !3
  br label %63

63:                                               ; preds = %99, %36
  %64 = load i32, ptr %23, align 4, !tbaa !3
  %65 = icmp slt i32 %64, 3
  br i1 %65, label %67, label %66

66:                                               ; preds = %63
  store i32 2, ptr %19, align 4
  br label %102

67:                                               ; preds = %63
  call void @llvm.lifetime.start.p0(i64 8, ptr %24) #10
  %68 = load ptr, ptr %18, align 8, !tbaa !47
  %69 = getelementptr inbounds nuw %struct.b2World, ptr %68, i32 0, i32 1
  %70 = getelementptr inbounds nuw %struct.b2BroadPhase, ptr %69, i32 0, i32 0
  %71 = getelementptr inbounds [3 x %struct.b2DynamicTree], ptr %70, i64 0, i64 0
  %72 = load i32, ptr %23, align 4, !tbaa !3
  %73 = sext i32 %72 to i64
  %74 = getelementptr inbounds %struct.b2DynamicTree, ptr %71, i64 %73
  %75 = getelementptr inbounds nuw %struct.b2QueryFilter, ptr %14, i32 0, i32 1
  %76 = load i64, ptr %75, align 8, !tbaa !508
  %77 = call i64 @b2DynamicTree_ShapeCast(ptr noundef %74, ptr noundef %20, i64 noundef %76, ptr noundef @ShapeCastCallback, ptr noundef %22)
  store i64 %77, ptr %24, align 4
  %78 = getelementptr inbounds nuw %struct.b2TreeStats, ptr %24, i32 0, i32 0
  %79 = load i32, ptr %78, align 4, !tbaa !509
  %80 = getelementptr inbounds nuw %struct.b2TreeStats, ptr %10, i32 0, i32 0
  %81 = load i32, ptr %80, align 4, !tbaa !509
  %82 = add nsw i32 %81, %79
  store i32 %82, ptr %80, align 4, !tbaa !509
  %83 = getelementptr inbounds nuw %struct.b2TreeStats, ptr %24, i32 0, i32 1
  %84 = load i32, ptr %83, align 4, !tbaa !511
  %85 = getelementptr inbounds nuw %struct.b2TreeStats, ptr %10, i32 0, i32 1
  %86 = load i32, ptr %85, align 4, !tbaa !511
  %87 = add nsw i32 %86, %84
  store i32 %87, ptr %85, align 4, !tbaa !511
  %88 = getelementptr inbounds nuw %struct.WorldRayCastContext, ptr %22, i32 0, i32 3
  %89 = load float, ptr %88, align 8, !tbaa !540
  %90 = fcmp oeq float %89, 0.000000e+00
  br i1 %90, label %91, label %92

91:                                               ; preds = %67
  store i32 1, ptr %19, align 4
  br label %96

92:                                               ; preds = %67
  %93 = getelementptr inbounds nuw %struct.WorldRayCastContext, ptr %22, i32 0, i32 3
  %94 = load float, ptr %93, align 8, !tbaa !540
  %95 = getelementptr inbounds nuw %struct.b2ShapeCastInput, ptr %20, i32 0, i32 4
  store float %94, ptr %95, align 4, !tbaa !561
  store i32 0, ptr %19, align 4
  br label %96

96:                                               ; preds = %92, %91
  call void @llvm.lifetime.end.p0(i64 8, ptr %24) #10
  %97 = load i32, ptr %19, align 4
  switch i32 %97, label %102 [
    i32 0, label %98
  ]

98:                                               ; preds = %96
  br label %99

99:                                               ; preds = %98
  %100 = load i32, ptr %23, align 4, !tbaa !3
  %101 = add nsw i32 %100, 1
  store i32 %101, ptr %23, align 4, !tbaa !3
  br label %63, !llvm.loop !562

102:                                              ; preds = %96, %66
  call void @llvm.lifetime.end.p0(i64 4, ptr %23) #10
  %103 = load i32, ptr %19, align 4
  switch i32 %103, label %105 [
    i32 2, label %104
  ]

104:                                              ; preds = %102
  store i32 1, ptr %19, align 4
  br label %105

105:                                              ; preds = %104, %102
  call void @llvm.lifetime.end.p0(i64 48, ptr %22) #10
  call void @llvm.lifetime.end.p0(i64 84, ptr %20) #10
  br label %106

106:                                              ; preds = %105, %35
  call void @llvm.lifetime.end.p0(i64 8, ptr %18) #10
  %107 = load i64, ptr %10, align 4
  ret i64 %107
}