; Function Attrs: nounwind uwtable
define i64 @b2World_CastCircle(i32 %0, ptr noundef readonly captures(none) %1, <2 x float> %2, <2 x float> %3, <2 x float> %4, i64 %5, i64 %6, ptr noundef %7, ptr noundef %8) local_unnamed_addr #8 {
  %10 = alloca %struct.b2ShapeCastInput, align 8
  %11 = alloca %struct.WorldRayCastContext, align 8
  %12 = and i32 %0, 65535
  %13 = zext nneg i32 %12 to i64
  %14 = getelementptr %struct.b2World, ptr @b2_worlds, i64 %13
  %15 = getelementptr i8, ptr %14, i64 -9
  %16 = load i8, ptr %15, align 1, !tbaa !35, !range !77, !noundef !78
  %17 = trunc nuw i8 %16 to i1
  br i1 %17, label %54, label %18

18:                                               ; preds = %9
  %19 = getelementptr i8, ptr %14, i64 -1792
  call void @llvm.lifetime.start.p0(i64 84, ptr nonnull %10) #22
  %20 = load <2 x float>, ptr %1, align 4
  %.sroa.3.8.vec.extract.i = extractelement <2 x float> %3, i64 0
  %.sroa.0.0.vec.extract.i = extractelement <2 x float> %20, i64 0
  %21 = fmul <2 x float> %3, %20
  %22 = extractelement <2 x float> %21, i64 0
  %.sroa.3.12.vec.extract.i = extractelement <2 x float> %3, i64 1
  %.sroa.0.4.vec.extract.i = extractelement <2 x float> %20, i64 1
  %23 = fmul float %.sroa.3.12.vec.extract.i, %.sroa.0.4.vec.extract.i
  %24 = fsub float %22, %23
  %.sroa.06.0.vec.extract.i = extractelement <2 x float> %2, i64 0
  %25 = fadd float %.sroa.06.0.vec.extract.i, %24
  %26 = fmul float %.sroa.3.12.vec.extract.i, %.sroa.0.0.vec.extract.i
  %27 = fmul float %.sroa.3.8.vec.extract.i, %.sroa.0.4.vec.extract.i
  %28 = fadd float %26, %27
  %.sroa.06.4.vec.extract.i = extractelement <2 x float> %2, i64 1
  %29 = fadd float %.sroa.06.4.vec.extract.i, %28
  %.sroa.011.0.vec.insert.i = insertelement <2 x float> poison, float %25, i64 0
  %.sroa.011.4.vec.insert.i = insertelement <2 x float> %.sroa.011.0.vec.insert.i, float %29, i64 1
  store <2 x float> %.sroa.011.4.vec.insert.i, ptr %10, align 8
  %30 = getelementptr inbounds nuw i8, ptr %10, i64 64
  store i32 1, ptr %30, align 8, !tbaa !452
  %31 = getelementptr inbounds nuw i8, ptr %1, i64 8
  %32 = load float, ptr %31, align 4, !tbaa !320
  %33 = getelementptr inbounds nuw i8, ptr %10, i64 68
  store float %32, ptr %33, align 4, !tbaa !454
  %34 = getelementptr inbounds nuw i8, ptr %10, i64 72
  store <2 x float> %4, ptr %34, align 8
  %35 = getelementptr inbounds nuw i8, ptr %10, i64 80
  store float 1.000000e+00, ptr %35, align 8, !tbaa !455
  call void @llvm.lifetime.start.p0(i64 48, ptr nonnull %11) #22
  store ptr %19, ptr %11, align 8, !tbaa !436
  %36 = getelementptr inbounds nuw i8, ptr %11, i64 8
  store ptr %7, ptr %36, align 8, !tbaa !438
  %37 = getelementptr inbounds nuw i8, ptr %11, i64 16
  store i64 %5, ptr %37, align 8, !tbaa !227
  %.sroa.2.0..sroa_idx = getelementptr inbounds nuw i8, ptr %11, i64 24
  store i64 %6, ptr %.sroa.2.0..sroa_idx, align 8, !tbaa !227
  %38 = getelementptr inbounds nuw i8, ptr %11, i64 32
  store float 1.000000e+00, ptr %38, align 8, !tbaa !439
  %39 = getelementptr inbounds nuw i8, ptr %11, i64 36
  store i32 0, ptr %39, align 4
  %40 = getelementptr inbounds nuw i8, ptr %11, i64 40
  store ptr %8, ptr %40, align 8, !tbaa !440
  %41 = getelementptr i8, ptr %14, i64 -1752
  br label %42

42:                                               ; preds = %18, %49
  %indvars.iv = phi i64 [ 0, %18 ], [ %indvars.iv.next, %49 ]
  %.sroa.018.127 = phi i32 [ 0, %18 ], [ %45, %49 ]
  %.sroa.420.126 = phi i32 [ 0, %18 ], [ %46, %49 ]
  %43 = getelementptr inbounds nuw %struct.b2DynamicTree, ptr %41, i64 %indvars.iv
  %44 = call i64 @b2DynamicTree_ShapeCast(ptr noundef nonnull %43, ptr noundef nonnull %10, i64 noundef %6, ptr noundef nonnull @ShapeCastCallback, ptr noundef nonnull %11) #22
  %.sroa.0.0.extract.trunc = trunc i64 %44 to i32
  %.sroa.4.0.extract.shift = lshr i64 %44, 32
  %.sroa.4.0.extract.trunc = trunc nuw i64 %.sroa.4.0.extract.shift to i32
  %45 = add nsw i32 %.sroa.018.127, %.sroa.0.0.extract.trunc
  %46 = add nsw i32 %.sroa.420.126, %.sroa.4.0.extract.trunc
  %47 = load float, ptr %38, align 8, !tbaa !439
  %48 = fcmp une float %47, 0.000000e+00
  br i1 %48, label %49, label %.critedge

49:                                               ; preds = %42
  store float %47, ptr %35, align 8, !tbaa !455
  %indvars.iv.next = add nuw nsw i64 %indvars.iv, 1
  %exitcond.not = icmp eq i64 %indvars.iv.next, 3
  br i1 %exitcond.not, label %.critedge, label %42, !llvm.loop !456

.critedge:                                        ; preds = %42, %49
  call void @llvm.lifetime.end.p0(i64 48, ptr nonnull %11) #22
  call void @llvm.lifetime.end.p0(i64 84, ptr nonnull %10) #22
  %50 = zext i32 %46 to i64
  %51 = shl nuw i64 %50, 32
  %52 = zext i32 %45 to i64
  %53 = or disjoint i64 %51, %52
  br label %54

54:                                               ; preds = %9, %.critedge
  %.sroa.018.0.insert.insert = phi i64 [ %53, %.critedge ], [ 0, %9 ]
  ret i64 %.sroa.018.0.insert.insert
}